target datalayout = "e-m:e-p270:32:32-p271:32:32-p272:64:64-i64:64-i128:128-f80:128-n8:16:32:64-S128"
target triple = "x86_64-pc-linux-gnu"

%struct._ir_hashtab = type { ptr, i32, i32, i32, i32 }
%struct._ir_hashtab_bucket = type { i32, i32, i32 }

; Function Attrs: nounwind uwtable
define hidden i32 @ir_hashtab_find(ptr noundef %0, i32 noundef %1) #0 {
  %3 = alloca i32, align 4
  %4 = alloca ptr, align 8
  %5 = alloca i32, align 4
  %6 = alloca ptr, align 8
  %7 = alloca i32, align 4
  %8 = alloca ptr, align 8
  store ptr %0, ptr %4, align 8
  store i32 %1, ptr %5, align 4
  %9 = load ptr, ptr %4, align 8
  %10 = getelementptr inbounds %struct._ir_hashtab, ptr %9, i32 0, i32 0
  %11 = load ptr, ptr %10, align 8
  store ptr %11, ptr %6, align 8
  %12 = load ptr, ptr %6, align 8
  %13 = load i32, ptr %5, align 4
  %14 = load ptr, ptr %4, align 8
  %15 = getelementptr inbounds %struct._ir_hashtab, ptr %14, i32 0, i32 1
  %16 = load i32, ptr %15, align 8
  %17 = or i32 %13, %16
  %18 = sext i32 %17 to i64
  %19 = getelementptr inbounds i32, ptr %12, i64 %18
  %20 = load i32, ptr %19, align 4
  store i32 %20, ptr %7, align 4
  br label %21

21:                                               ; preds = %38, %2
  %22 = load i32, ptr %7, align 4
  %23 = icmp ne i32 %22, -1
  br i1 %23, label %24, label %42

24:                                               ; preds = %21
  %25 = load ptr, ptr %6, align 8
  %26 = load i32, ptr %7, align 4
  %27 = zext i32 %26 to i64
  %28 = getelementptr inbounds i8, ptr %25, i64 %27
  store ptr %28, ptr %8, align 8
  %29 = load ptr, ptr %8, align 8
  %30 = getelementptr inbounds %struct._ir_hashtab_bucket, ptr %29, i32 0, i32 0
  %31 = load i32, ptr %30, align 4
  %32 = load i32, ptr %5, align 4
  %33 = icmp eq i32 %31, %32
  br i1 %33, label %34, label %38

34:                                               ; preds = %24
  %35 = load ptr, ptr %8, align 8
  %36 = getelementptr inbounds %struct._ir_hashtab_bucket, ptr %35, i32 0, i32 1
  %37 = load i32, ptr %36, align 4
  store i32 %37, ptr %3, align 4
  br label %43

38:                                               ; preds = %24
  %39 = load ptr, ptr %8, align 8
  %40 = getelementptr inbounds %struct._ir_hashtab_bucket, ptr %39, i32 0, i32 2
  %41 = load i32, ptr %40, align 4
  store i32 %41, ptr %7, align 4
  br label %21

42:                                               ; preds = %21
  store i32 -2147483648, ptr %3, align 4
  br label %43

43:                                               ; preds = %42, %34
  %44 = load i32, ptr %3, align 4
  ret i32 %44
}