; Function Attrs: nofree norecurse nosync nounwind memory(read, inaccessiblemem: none) uwtable
define hidden i32 @ir_hashtab_find(ptr nocapture noundef readonly %0, i32 noundef %1) local_unnamed_addr #16 {
  %3 = load ptr, ptr %0, align 8
  %4 = getelementptr inbounds i8, ptr %0, i64 8
  %5 = load i32, ptr %4, align 8
  %6 = or i32 %5, %1
  %7 = sext i32 %6 to i64
  %8 = getelementptr inbounds i32, ptr %3, i64 %7
  %.01112 = load i32, ptr %8, align 4
  %.not13 = icmp eq i32 %.01112, -1
  br i1 %.not13, label %.loopexit, label %.lr.ph

.lr.ph:                                           ; preds = %2, %16
  %.01114 = phi i32 [ %.011, %16 ], [ %.01112, %2 ]
  %9 = zext i32 %.01114 to i64
  %10 = getelementptr inbounds i8, ptr %3, i64 %9
  %11 = load i32, ptr %10, align 4
  %12 = icmp eq i32 %11, %1
  br i1 %12, label %13, label %16

13:                                               ; preds = %.lr.ph
  %14 = getelementptr inbounds i8, ptr %10, i64 4
  %15 = load i32, ptr %14, align 4
  br label %.loopexit

16:                                               ; preds = %.lr.ph
  %17 = getelementptr inbounds i8, ptr %10, i64 8
  %.011 = load i32, ptr %17, align 4
  %.not = icmp eq i32 %.011, -1
  br i1 %.not, label %.loopexit, label %.lr.ph

.loopexit:                                        ; preds = %16, %2, %13
  %.0 = phi i32 [ %15, %13 ], [ -2147483648, %2 ], [ -2147483648, %16 ]
  ret i32 %.0
}